target datalayout = "e-m:e-p270:32:32-p271:32:32-p272:64:64-i64:64-i128:128-f80:128-n8:16:32:64-S128"
target triple = "x86_64-pc-linux-gnu"

%struct.ma_fader_config = type { i32, i32, i32 }
%struct.ma_fader = type { %struct.ma_fader_config, float, float, i64, i64 }

; Function Attrs: alwaysinline nounwind uwtable
define internal void @ma_zero_memory_default(ptr noundef %0, i64 noundef %1) #7 {
  %3 = alloca ptr, align 8
  %4 = alloca i64, align 8
  store ptr %0, ptr %3, align 8, !tbaa !25
  store i64 %1, ptr %4, align 8, !tbaa !12
  %5 = load ptr, ptr %3, align 8, !tbaa !25
  %6 = icmp eq ptr %5, null
  br i1 %6, label %7, label %8

7:                                                ; preds = %2
  br label %14

8:                                                ; preds = %2
  %9 = load i64, ptr %4, align 8, !tbaa !12
  %10 = icmp ugt i64 %9, 0
  br i1 %10, label %11, label %14

11:                                               ; preds = %8
  %12 = load ptr, ptr %3, align 8, !tbaa !25
  %13 = load i64, ptr %4, align 8, !tbaa !12
  call void @llvm.memset.p0.i64(ptr align 1 %12, i8 0, i64 %13, i1 false)
  br label %14

14:                                               ; preds = %7, %11, %8
  ret void
}

; Function Attrs: nounwind uwtable
define i32 @ma_fader_init(ptr noundef %0, ptr noundef %1) #0 {
  %3 = alloca i32, align 4
  %4 = alloca ptr, align 8
  %5 = alloca ptr, align 8
  store ptr %0, ptr %4, align 8, !tbaa !25
  store ptr %1, ptr %5, align 8, !tbaa !25
  %6 = load ptr, ptr %5, align 8, !tbaa !25
  %7 = icmp eq ptr %6, null
  br i1 %7, label %8, label %9

8:                                                ; preds = %2
  store i32 -2, ptr %3, align 4
  br label %32

9:                                                ; preds = %2
  %10 = load ptr, ptr %5, align 8, !tbaa !25
  call void @ma_zero_memory_default(ptr noundef %10, i64 noundef 40)
  %11 = load ptr, ptr %4, align 8, !tbaa !25
  %12 = icmp eq ptr %11, null
  br i1 %12, label %13, label %14

13:                                               ; preds = %9
  store i32 -2, ptr %3, align 4
  br label %32

14:                                               ; preds = %9
  %15 = load ptr, ptr %4, align 8, !tbaa !25
  %16 = getelementptr inbounds nuw %struct.ma_fader_config, ptr %15, i32 0, i32 0
  %17 = load i32, ptr %16, align 4, !tbaa !197
  %18 = icmp ne i32 %17, 5
  br i1 %18, label %19, label %20

19:                                               ; preds = %14
  store i32 -2, ptr %3, align 4
  br label %32

20:                                               ; preds = %14
  %21 = load ptr, ptr %5, align 8, !tbaa !25
  %22 = getelementptr inbounds nuw %struct.ma_fader, ptr %21, i32 0, i32 0
  %23 = load ptr, ptr %4, align 8, !tbaa !25
  call void @llvm.memcpy.p0.p0.i64(ptr align 8 %22, ptr align 4 %23, i64 12, i1 false), !tbaa.struct !583
  %24 = load ptr, ptr %5, align 8, !tbaa !25
  %25 = getelementptr inbounds nuw %struct.ma_fader, ptr %24, i32 0, i32 1
  store float 1.000000e+00, ptr %25, align 4, !tbaa !584
  %26 = load ptr, ptr %5, align 8, !tbaa !25
  %27 = getelementptr inbounds nuw %struct.ma_fader, ptr %26, i32 0, i32 2
  store float 1.000000e+00, ptr %27, align 8, !tbaa !586
  %28 = load ptr, ptr %5, align 8, !tbaa !25
  %29 = getelementptr inbounds nuw %struct.ma_fader, ptr %28, i32 0, i32 3
  store i64 0, ptr %29, align 8, !tbaa !587
  %30 = load ptr, ptr %5, align 8, !tbaa !25
  %31 = getelementptr inbounds nuw %struct.ma_fader, ptr %30, i32 0, i32 4
  store i64 0, ptr %31, align 8, !tbaa !588
  store i32 0, ptr %3, align 4
  br label %32

32:                                               ; preds = %20, %19, %13, %8
  %33 = load i32, ptr %3, align 4
  ret i32 %33
}