; Function Attrs: mustprogress nofree norecurse nosync nounwind willreturn memory(argmem: readwrite) uwtable
define range(i32 -2, 1) i32 @ma_fader_init(ptr noundef readonly captures(address_is_null) %0, ptr noundef writeonly captures(address_is_null) %1) local_unnamed_addr #13 {
  %3 = icmp eq ptr %1, null
  br i1 %3, label %11, label %ma_zero_memory_default.exit

ma_zero_memory_default.exit:                      ; preds = %2
  tail call void @llvm.memset.p0.i64(ptr noundef nonnull align 1 dereferenceable(40) %1, i8 0, i64 40, i1 false)
  %4 = icmp eq ptr %0, null
  br i1 %4, label %11, label %5

5:                                                ; preds = %ma_zero_memory_default.exit
  %6 = load i32, ptr %0, align 4, !tbaa !190
  %.not = icmp eq i32 %6, 5
  br i1 %.not, label %7, label %11

7:                                                ; preds = %5
  tail call void @llvm.memcpy.p0.p0.i64(ptr noundef nonnull align 8 dereferenceable(12) %1, ptr noundef nonnull align 4 dereferenceable(12) %0, i64 12, i1 false), !tbaa.struct !733
  %8 = getelementptr inbounds nuw i8, ptr %1, i64 12
  store float 1.000000e+00, ptr %8, align 4, !tbaa !734
  %9 = getelementptr inbounds nuw i8, ptr %1, i64 16
  store float 1.000000e+00, ptr %9, align 8, !tbaa !736
  %10 = getelementptr inbounds nuw i8, ptr %1, i64 24
  tail call void @llvm.memset.p0.i64(ptr noundef nonnull align 8 dereferenceable(16) %10, i8 0, i64 16, i1 false)
  br label %11

11:                                               ; preds = %5, %ma_zero_memory_default.exit, %2, %7
  %.0 = phi i32 [ 0, %7 ], [ -2, %2 ], [ -2, %ma_zero_memory_default.exit ], [ -2, %5 ]
  ret i32 %.0
}